; ModuleID = '39/583.c'
source_filename = "39/583.c"
target datalayout = "e-m:e-p270:32:32-p271:32:32-p272:64:64-i64:64-f80:128-n8:16:32:64-S128"
target triple = "x86_64-pc-linux-gnu"

%struct.student = type { [20 x i8], i32, i32, i8, i8, i32 }

@.str = private unnamed_addr constant [3 x i8] c"%d\00", align 1
@.str.1 = private unnamed_addr constant [15 x i8] c"%s%d%d %c %c%d\00", align 1
@.str.2 = private unnamed_addr constant [9 x i8] c"%s\0A%d\0A%d\00", align 1

; Function Attrs: noinline nounwind uwtable
define dso_local void @main() #0 {
  %1 = alloca i32, align 4
  %2 = alloca i32, align 4
  %3 = alloca [100 x i32], align 16
  %4 = alloca i32, align 4
  %5 = alloca i32, align 4
  %6 = alloca i32, align 4
  %7 = alloca [100 x %struct.student], align 16
  %8 = call i32 (i8*, ...) @__isoc99_scanf(i8* getelementptr inbounds ([3 x i8], [3 x i8]* @.str, i64 0, i64 0), i32* %1)
  store i32 0, i32* %2, align 4
  br label %9

9:                                                ; preds = %40, %0
  %10 = load i32, i32* %2, align 4
  %11 = load i32, i32* %1, align 4
  %12 = icmp slt i32 %10, %11
  br i1 %12, label %13, label %43

13:                                               ; preds = %9
  %14 = load i32, i32* %2, align 4
  %15 = sext i32 %14 to i64
  %16 = getelementptr inbounds [100 x %struct.student], [100 x %struct.student]* %7, i64 0, i64 %15
  %17 = getelementptr inbounds %struct.student, %struct.student* %16, i32 0, i32 0
  %18 = getelementptr inbounds [20 x i8], [20 x i8]* %17, i64 0, i64 0
  %19 = load i32, i32* %2, align 4
  %20 = sext i32 %19 to i64
  %21 = getelementptr inbounds [100 x %struct.student], [100 x %struct.student]* %7, i64 0, i64 %20
  %22 = getelementptr inbounds %struct.student, %struct.student* %21, i32 0, i32 1
  %23 = load i32, i32* %2, align 4
  %24 = sext i32 %23 to i64
  %25 = getelementptr inbounds [100 x %struct.student], [100 x %struct.student]* %7, i64 0, i64 %24
  %26 = getelementptr inbounds %struct.student, %struct.student* %25, i32 0, i32 2
  %27 = load i32, i32* %2, align 4
  %28 = sext i32 %27 to i64
  %29 = getelementptr inbounds [100 x %struct.student], [100 x %struct.student]* %7, i64 0, i64 %28
  %30 = getelementptr inbounds %struct.student, %struct.student* %29, i32 0, i32 3
  %31 = load i32, i32* %2, align 4
  %32 = sext i32 %31 to i64
  %33 = getelementptr inbounds [100 x %struct.student], [100 x %struct.student]* %7, i64 0, i64 %32
  %34 = getelementptr inbounds %struct.student, %struct.student* %33, i32 0, i32 4
  %35 = load i32, i32* %2, align 4
  %36 = sext i32 %35 to i64
  %37 = getelementptr inbounds [100 x %struct.student], [100 x %struct.student]* %7, i64 0, i64 %36
  %38 = getelementptr inbounds %struct.student, %struct.student* %37, i32 0, i32 5
  %39 = call i32 (i8*, ...) @__isoc99_scanf(i8* getelementptr inbounds ([15 x i8], [15 x i8]* @.str.1, i64 0, i64 0), i8* %18, i32* %22, i32* %26, i8* %30, i8* %34, i32* %38)
  br label %40

40:                                               ; preds = %13
  %41 = load i32, i32* %2, align 4
  %42 = add nsw i32 %41, 1
  store i32 %42, i32* %2, align 4
  br label %9

43:                                               ; preds = %9
  store i32 0, i32* %2, align 4
  br label %44

44:                                               ; preds = %156, %43
  %45 = load i32, i32* %2, align 4
  %46 = load i32, i32* %1, align 4
  %47 = icmp slt i32 %45, %46
  br i1 %47, label %48, label %159

48:                                               ; preds = %44
  %49 = load i32, i32* %2, align 4
  %50 = sext i32 %49 to i64
  %51 = getelementptr inbounds [100 x i32], [100 x i32]* %3, i64 0, i64 %50
  store i32 0, i32* %51, align 4
  %52 = load i32, i32* %2, align 4
  %53 = sext i32 %52 to i64
  %54 = getelementptr inbounds [100 x %struct.student], [100 x %struct.student]* %7, i64 0, i64 %53
  %55 = getelementptr inbounds %struct.student, %struct.student* %54, i32 0, i32 1
  %56 = load i32, i32* %55, align 4
  %57 = icmp sgt i32 %56, 80
  br i1 %57, label %58, label %74

58:                                               ; preds = %48
  %59 = load i32, i32* %2, align 4
  %60 = sext i32 %59 to i64
  %61 = getelementptr inbounds [100 x %struct.student], [100 x %struct.student]* %7, i64 0, i64 %60
  %62 = getelementptr inbounds %struct.student, %struct.student* %61, i32 0, i32 5
  %63 = load i32, i32* %62, align 4
  %64 = icmp sgt i32 %63, 0
  br i1 %64, label %65, label %74

65:                                               ; preds = %58
  %66 = load i32, i32* %2, align 4
  %67 = sext i32 %66 to i64
  %68 = getelementptr inbounds [100 x i32], [100 x i32]* %3, i64 0, i64 %67
  %69 = load i32, i32* %68, align 4
  %70 = add nsw i32 %69, 8000
  %71 = load i32, i32* %2, align 4
  %72 = sext i32 %71 to i64
  %73 = getelementptr inbounds [100 x i32], [100 x i32]* %3, i64 0, i64 %72
  store i32 %70, i32* %73, align 4
  br label %74

74:                                               ; preds = %65, %58, %48
  %75 = load i32, i32* %2, align 4
  %76 = sext i32 %75 to i64
  %77 = getelementptr inbounds [100 x %struct.student], [100 x %struct.student]* %7, i64 0, i64 %76
  %78 = getelementptr inbounds %struct.student, %struct.student* %77, i32 0, i32 1
  %79 = load i32, i32* %78, align 4
  %80 = icmp sgt i32 %79, 85
  br i1 %80, label %81, label %115

81:                                               ; preds = %74
  %82 = load i32, i32* %2, align 4
  %83 = sext i32 %82 to i64
  %84 = getelementptr inbounds [100 x %struct.student], [100 x %struct.student]* %7, i64 0, i64 %83
  %85 = getelementptr inbounds %struct.student, %struct.student* %84, i32 0, i32 2
  %86 = load i32, i32* %85, align 4
  %87 = icmp sgt i32 %86, 80
  br i1 %87, label %88, label %97

88:                                               ; preds = %81
  %89 = load i32, i32* %2, align 4
  %90 = sext i32 %89 to i64
  %91 = getelementptr inbounds [100 x i32], [100 x i32]* %3, i64 0, i64 %90
  %92 = load i32, i32* %91, align 4
  %93 = add nsw i32 %92, 4000
  %94 = load i32, i32* %2, align 4
  %95 = sext i32 %94 to i64
  %96 = getelementptr inbounds [100 x i32], [100 x i32]* %3, i64 0, i64 %95
  store i32 %93, i32* %96, align 4
  br label %97

97:                                               ; preds = %88, %81
  %98 = load i32, i32* %2, align 4
  %99 = sext i32 %98 to i64
  %100 = getelementptr inbounds [100 x %struct.student], [100 x %struct.student]* %7, i64 0, i64 %99
  %101 = getelementptr inbounds %struct.student, %struct.student* %100, i32 0, i32 4
  %102 = load i8, i8* %101, align 1
  %103 = sext i8 %102 to i32
  %104 = icmp eq i32 %103, 89
  br i1 %104, label %105, label %114

105:                                              ; preds = %97
  %106 = load i32, i32* %2, align 4
  %107 = sext i32 %106 to i64
  %108 = getelementptr inbounds [100 x i32], [100 x i32]* %3, i64 0, i64 %107
  %109 = load i32, i32* %108, align 4
  %110 = add nsw i32 %109, 1000
  %111 = load i32, i32* %2, align 4
  %112 = sext i32 %111 to i64
  %113 = getelementptr inbounds [100 x i32], [100 x i32]* %3, i64 0, i64 %112
  store i32 %110, i32* %113, align 4
  br label %114

114:                                              ; preds = %105, %97
  br label %115

115:                                              ; preds = %114, %74
  %116 = load i32, i32* %2, align 4
  %117 = sext i32 %116 to i64
  %118 = getelementptr inbounds [100 x %struct.student], [100 x %struct.student]* %7, i64 0, i64 %117
  %119 = getelementptr inbounds %struct.student, %struct.student* %118, i32 0, i32 1
  %120 = load i32, i32* %119, align 4
  %121 = icmp sgt i32 %120, 90
  br i1 %121, label %122, label %131

122:                                              ; preds = %115
  %123 = load i32, i32* %2, align 4
  %124 = sext i32 %123 to i64
  %125 = getelementptr inbounds [100 x i32], [100 x i32]* %3, i64 0, i64 %124
  %126 = load i32, i32* %125, align 4
  %127 = add nsw i32 %126, 2000
  %128 = load i32, i32* %2, align 4
  %129 = sext i32 %128 to i64
  %130 = getelementptr inbounds [100 x i32], [100 x i32]* %3, i64 0, i64 %129
  store i32 %127, i32* %130, align 4
  br label %131

131:                                              ; preds = %122, %115
  %132 = load i32, i32* %2, align 4
  %133 = sext i32 %132 to i64
  %134 = getelementptr inbounds [100 x %struct.student], [100 x %struct.student]* %7, i64 0, i64 %133
  %135 = getelementptr inbounds %struct.student, %struct.student* %134, i32 0, i32 3
  %136 = load i8, i8* %135, align 4
  %137 = sext i8 %136 to i32
  %138 = icmp eq i32 %137, 89
  br i1 %138, label %139, label %155

139:                                              ; preds = %131
  %140 = load i32, i32* %2, align 4
  %141 = sext i32 %140 to i64
  %142 = getelementptr inbounds [100 x %struct.student], [100 x %struct.student]* %7, i64 0, i64 %141
  %143 = getelementptr inbounds %struct.student, %struct.student* %142, i32 0, i32 2
  %144 = load i32, i32* %143, align 4
  %145 = icmp sgt i32 %144, 80
  br i1 %145, label %146, label %155

146:                                              ; preds = %139
  %147 = load i32, i32* %2, align 4
  %148 = sext i32 %147 to i64
  %149 = getelementptr inbounds [100 x i32], [100 x i32]* %3, i64 0, i64 %148
  %150 = load i32, i32* %149, align 4
  %151 = add nsw i32 %150, 850
  %152 = load i32, i32* %2, align 4
  %153 = sext i32 %152 to i64
  %154 = getelementptr inbounds [100 x i32], [100 x i32]* %3, i64 0, i64 %153
  store i32 %151, i32* %154, align 4
  br label %155

155:                                              ; preds = %146, %139, %131
  br label %156

156:                                              ; preds = %155
  %157 = load i32, i32* %2, align 4
  %158 = add nsw i32 %157, 1
  store i32 %158, i32* %2, align 4
  br label %44

159:                                              ; preds = %44
  %160 = getelementptr inbounds [100 x i32], [100 x i32]* %3, i64 0, i64 0
  %161 = load i32, i32* %160, align 16
  store i32 %161, i32* %5, align 4
  %162 = getelementptr inbounds [100 x i32], [100 x i32]* %3, i64 0, i64 0
  %163 = load i32, i32* %162, align 16
  store i32 %163, i32* %6, align 4
  store i32 0, i32* %4, align 4
  store i32 1, i32* %2, align 4
  br label %164

164:                                              ; preds = %188, %159
  %165 = load i32, i32* %2, align 4
  %166 = load i32, i32* %1, align 4
  %167 = icmp slt i32 %165, %166
  br i1 %167, label %168, label %191

168:                                              ; preds = %164
  %169 = load i32, i32* %6, align 4
  %170 = load i32, i32* %2, align 4
  %171 = sext i32 %170 to i64
  %172 = getelementptr inbounds [100 x i32], [100 x i32]* %3, i64 0, i64 %171
  %173 = load i32, i32* %172, align 4
  %174 = icmp slt i32 %169, %173
  br i1 %174, label %175, label %181

175:                                              ; preds = %168
  %176 = load i32, i32* %2, align 4
  %177 = sext i32 %176 to i64
  %178 = getelementptr inbounds [100 x i32], [100 x i32]* %3, i64 0, i64 %177
  %179 = load i32, i32* %178, align 4
  store i32 %179, i32* %6, align 4
  %180 = load i32, i32* %2, align 4
  store i32 %180, i32* %4, align 4
  br label %181

181:                                              ; preds = %175, %168
  %182 = load i32, i32* %5, align 4
  %183 = load i32, i32* %2, align 4
  %184 = sext i32 %183 to i64
  %185 = getelementptr inbounds [100 x i32], [100 x i32]* %3, i64 0, i64 %184
  %186 = load i32, i32* %185, align 4
  %187 = add nsw i32 %182, %186
  store i32 %187, i32* %5, align 4
  br label %188

188:                                              ; preds = %181
  %189 = load i32, i32* %2, align 4
  %190 = add nsw i32 %189, 1
  store i32 %190, i32* %2, align 4
  br label %164

191:                                              ; preds = %164
  %192 = load i32, i32* %4, align 4
  %193 = sext i32 %192 to i64
  %194 = getelementptr inbounds [100 x %struct.student], [100 x %struct.student]* %7, i64 0, i64 %193
  %195 = getelementptr inbounds %struct.student, %struct.student* %194, i32 0, i32 0
  %196 = getelementptr inbounds [20 x i8], [20 x i8]* %195, i64 0, i64 0
  %197 = load i32, i32* %4, align 4
  %198 = sext i32 %197 to i64
  %199 = getelementptr inbounds [100 x i32], [100 x i32]* %3, i64 0, i64 %198
  %200 = load i32, i32* %199, align 4
  %201 = load i32, i32* %5, align 4
  %202 = call i32 (i8*, ...) @printf(i8* getelementptr inbounds ([9 x i8], [9 x i8]* @.str.2, i64 0, i64 0), i8* %196, i32 %200, i32 %201)
  ret void
}

declare dso_local i32 @__isoc99_scanf(i8*, ...) #1

declare dso_local i32 @printf(i8*, ...) #1


!llvm.module.flags = !{!0}
!llvm.ident = !{!1}

!0 = !{i32 1, !"wchar_size", i32 4}
!1 = !{!"clang version 10.0.0-4ubuntu1 "}
